target datalayout = "e-m:e-p270:32:32-p271:32:32-p272:64:64-i64:64-i128:128-f80:128-n8:16:32:64-S128"
target triple = "x86_64-pc-linux-gnu"

%struct.IndexScanDescData = type { ptr, ptr, ptr, i32, i32, ptr, ptr, i8, i8, i8, i8, i8, ptr, ptr, ptr, ptr, ptr, %struct.ItemPointerData, i8, ptr, i8, ptr, ptr, i8, ptr }
%struct.ItemPointerData = type { %struct.BlockIdData, i16 }
%struct.BlockIdData = type { i16, i16 }
%struct.HashScanOpaqueData = type { i32, i32, i32, i8, i8, ptr, i32, %struct.HashScanPosData }
%struct.HashScanPosData = type { i32, i32, i32, i32, i32, i32, i32, [408 x %struct.HashScanPosItem] }
%struct.HashScanPosItem = type { %struct.ItemPointerData, i16 }

; Function Attrs: inlinehint nounwind uwtable
define internal zeroext i1 @BlockNumberIsValid(i32 noundef %0) #3 {
  %2 = alloca i32, align 4
  store i32 %0, ptr %2, align 4
  %3 = load i32, ptr %2, align 4
  %4 = icmp ne i32 %3, -1
  ret i1 %4
}

; Function Attrs: nounwind uwtable
define dso_local zeroext i1 @_hash_next(ptr noundef %0, i32 noundef %1) #0 {
  %3 = alloca i1, align 1
  %4 = alloca ptr, align 8
  %5 = alloca i32, align 4
  %6 = alloca ptr, align 8
  %7 = alloca ptr, align 8
  %8 = alloca ptr, align 8
  %9 = alloca i32, align 4
  %10 = alloca i32, align 4
  %11 = alloca i8, align 1
  %12 = alloca i32, align 4
  store ptr %0, ptr %4, align 8
  store i32 %1, ptr %5, align 4
  call void @llvm.lifetime.start.p0(i64 8, ptr %6) #7
  %13 = load ptr, ptr %4, align 8
  %14 = getelementptr inbounds nuw %struct.IndexScanDescData, ptr %13, i32 0, i32 1
  %15 = load ptr, ptr %14, align 8
  store ptr %15, ptr %6, align 8
  call void @llvm.lifetime.start.p0(i64 8, ptr %7) #7
  %16 = load ptr, ptr %4, align 8
  %17 = getelementptr inbounds nuw %struct.IndexScanDescData, ptr %16, i32 0, i32 12
  %18 = load ptr, ptr %17, align 8
  store ptr %18, ptr %7, align 8
  call void @llvm.lifetime.start.p0(i64 8, ptr %8) #7
  call void @llvm.lifetime.start.p0(i64 4, ptr %9) #7
  call void @llvm.lifetime.start.p0(i64 4, ptr %10) #7
  call void @llvm.lifetime.start.p0(i64 1, ptr %11) #7
  store i8 0, ptr %11, align 1
  %19 = load i32, ptr %5, align 4
  %20 = icmp eq i32 %19, 1
  br i1 %20, label %21, label %58

21:                                               ; preds = %2
  %22 = load ptr, ptr %7, align 8
  %23 = getelementptr inbounds nuw %struct.HashScanOpaqueData, ptr %22, i32 0, i32 7
  %24 = getelementptr inbounds nuw %struct.HashScanPosData, ptr %23, i32 0, i32 6
  %25 = load i32, ptr %24, align 4
  %26 = add i32 %25, 1
  store i32 %26, ptr %24, align 4
  %27 = load ptr, ptr %7, align 8
  %28 = getelementptr inbounds nuw %struct.HashScanOpaqueData, ptr %27, i32 0, i32 7
  %29 = getelementptr inbounds nuw %struct.HashScanPosData, ptr %28, i32 0, i32 5
  %30 = load i32, ptr %29, align 4
  %31 = icmp sgt i32 %26, %30
  br i1 %31, label %32, label %57

32:                                               ; preds = %21
  %33 = load ptr, ptr %7, align 8
  %34 = getelementptr inbounds nuw %struct.HashScanOpaqueData, ptr %33, i32 0, i32 6
  %35 = load i32, ptr %34, align 8
  %36 = icmp sgt i32 %35, 0
  br i1 %36, label %37, label %39

37:                                               ; preds = %32
  %38 = load ptr, ptr %4, align 8
  call void @_hash_kill_items(ptr noundef %38)
  br label %39

39:                                               ; preds = %37, %32
  %40 = load ptr, ptr %7, align 8
  %41 = getelementptr inbounds nuw %struct.HashScanOpaqueData, ptr %40, i32 0, i32 7
  %42 = getelementptr inbounds nuw %struct.HashScanPosData, ptr %41, i32 0, i32 2
  %43 = load i32, ptr %42, align 4
  store i32 %43, ptr %9, align 4
  %44 = load i32, ptr %9, align 4
  %45 = call zeroext i1 @BlockNumberIsValid(i32 noundef %44)
  br i1 %45, label %46, label %55

46:                                               ; preds = %39
  %47 = load ptr, ptr %6, align 8
  %48 = load i32, ptr %9, align 4
  %49 = call i32 @_hash_getbuf(ptr noundef %47, i32 noundef %48, i32 noundef 1, i32 noundef 1)
  store i32 %49, ptr %10, align 4
  %50 = load ptr, ptr %4, align 8
  %51 = load i32, ptr %5, align 4
  %52 = call zeroext i1 @_hash_readpage(ptr noundef %50, ptr noundef %10, i32 noundef %51)
  br i1 %52, label %54, label %53

53:                                               ; preds = %46
  store i8 1, ptr %11, align 1
  br label %54

54:                                               ; preds = %53, %46
  br label %56

55:                                               ; preds = %39
  store i8 1, ptr %11, align 1
  br label %56

56:                                               ; preds = %55, %54
  br label %57

57:                                               ; preds = %56, %21
  br label %110

58:                                               ; preds = %2
  %59 = load ptr, ptr %7, align 8
  %60 = getelementptr inbounds nuw %struct.HashScanOpaqueData, ptr %59, i32 0, i32 7
  %61 = getelementptr inbounds nuw %struct.HashScanPosData, ptr %60, i32 0, i32 6
  %62 = load i32, ptr %61, align 4
  %63 = add i32 %62, -1
  store i32 %63, ptr %61, align 4
  %64 = load ptr, ptr %7, align 8
  %65 = getelementptr inbounds nuw %struct.HashScanOpaqueData, ptr %64, i32 0, i32 7
  %66 = getelementptr inbounds nuw %struct.HashScanPosData, ptr %65, i32 0, i32 4
  %67 = load i32, ptr %66, align 4
  %68 = icmp slt i32 %63, %67
  br i1 %68, label %69, label %109

69:                                               ; preds = %58
  %70 = load ptr, ptr %7, align 8
  %71 = getelementptr inbounds nuw %struct.HashScanOpaqueData, ptr %70, i32 0, i32 6
  %72 = load i32, ptr %71, align 8
  %73 = icmp sgt i32 %72, 0
  br i1 %73, label %74, label %76

74:                                               ; preds = %69
  %75 = load ptr, ptr %4, align 8
  call void @_hash_kill_items(ptr noundef %75)
  br label %76

76:                                               ; preds = %74, %69
  %77 = load ptr, ptr %7, align 8
  %78 = getelementptr inbounds nuw %struct.HashScanOpaqueData, ptr %77, i32 0, i32 7
  %79 = getelementptr inbounds nuw %struct.HashScanPosData, ptr %78, i32 0, i32 3
  %80 = load i32, ptr %79, align 4
  store i32 %80, ptr %9, align 4
  %81 = load i32, ptr %9, align 4
  %82 = call zeroext i1 @BlockNumberIsValid(i32 noundef %81)
  br i1 %82, label %83, label %107

83:                                               ; preds = %76
  %84 = load ptr, ptr %6, align 8
  %85 = load i32, ptr %9, align 4
  %86 = call i32 @_hash_getbuf(ptr noundef %84, i32 noundef %85, i32 noundef 1, i32 noundef 3)
  store i32 %86, ptr %10, align 4
  %87 = load i32, ptr %10, align 4
  %88 = load ptr, ptr %7, align 8
  %89 = getelementptr inbounds nuw %struct.HashScanOpaqueData, ptr %88, i32 0, i32 1
  %90 = load i32, ptr %89, align 4
  %91 = icmp eq i32 %87, %90
  br i1 %91, label %98, label %92

92:                                               ; preds = %83
  %93 = load i32, ptr %10, align 4
  %94 = load ptr, ptr %7, align 8
  %95 = getelementptr inbounds nuw %struct.HashScanOpaqueData, ptr %94, i32 0, i32 2
  %96 = load i32, ptr %95, align 8
  %97 = icmp eq i32 %93, %96
  br i1 %97, label %98, label %101

98:                                               ; preds = %92, %83
  %99 = load ptr, ptr %6, align 8
  %100 = load i32, ptr %10, align 4
  call void @_hash_dropbuf(ptr noundef %99, i32 noundef %100)
  br label %101

101:                                              ; preds = %98, %92
  %102 = load ptr, ptr %4, align 8
  %103 = load i32, ptr %5, align 4
  %104 = call zeroext i1 @_hash_readpage(ptr noundef %102, ptr noundef %10, i32 noundef %103)
  br i1 %104, label %106, label %105

105:                                              ; preds = %101
  store i8 1, ptr %11, align 1
  br label %106

106:                                              ; preds = %105, %101
  br label %108

107:                                              ; preds = %76
  store i8 1, ptr %11, align 1
  br label %108

108:                                              ; preds = %107, %106
  br label %109

109:                                              ; preds = %108, %58
  br label %110

110:                                              ; preds = %109, %57
  %111 = load i8, ptr %11, align 1, !range !4, !noundef !5
  %112 = trunc i8 %111 to i1
  br i1 %112, label %113, label %140

113:                                              ; preds = %110
  %114 = load ptr, ptr %6, align 8
  %115 = load ptr, ptr %7, align 8
  call void @_hash_dropscanbuf(ptr noundef %114, ptr noundef %115)
  br label %116

116:                                              ; preds = %113
  %117 = load ptr, ptr %7, align 8
  %118 = getelementptr inbounds nuw %struct.HashScanOpaqueData, ptr %117, i32 0, i32 7
  %119 = getelementptr inbounds nuw %struct.HashScanPosData, ptr %118, i32 0, i32 0
  store i32 0, ptr %119, align 4
  %120 = load ptr, ptr %7, align 8
  %121 = getelementptr inbounds nuw %struct.HashScanOpaqueData, ptr %120, i32 0, i32 7
  %122 = getelementptr inbounds nuw %struct.HashScanPosData, ptr %121, i32 0, i32 1
  store i32 -1, ptr %122, align 4
  %123 = load ptr, ptr %7, align 8
  %124 = getelementptr inbounds nuw %struct.HashScanOpaqueData, ptr %123, i32 0, i32 7
  %125 = getelementptr inbounds nuw %struct.HashScanPosData, ptr %124, i32 0, i32 2
  store i32 -1, ptr %125, align 4
  %126 = load ptr, ptr %7, align 8
  %127 = getelementptr inbounds nuw %struct.HashScanOpaqueData, ptr %126, i32 0, i32 7
  %128 = getelementptr inbounds nuw %struct.HashScanPosData, ptr %127, i32 0, i32 3
  store i32 -1, ptr %128, align 4
  %129 = load ptr, ptr %7, align 8
  %130 = getelementptr inbounds nuw %struct.HashScanOpaqueData, ptr %129, i32 0, i32 7
  %131 = getelementptr inbounds nuw %struct.HashScanPosData, ptr %130, i32 0, i32 4
  store i32 0, ptr %131, align 4
  %132 = load ptr, ptr %7, align 8
  %133 = getelementptr inbounds nuw %struct.HashScanOpaqueData, ptr %132, i32 0, i32 7
  %134 = getelementptr inbounds nuw %struct.HashScanPosData, ptr %133, i32 0, i32 5
  store i32 0, ptr %134, align 4
  %135 = load ptr, ptr %7, align 8
  %136 = getelementptr inbounds nuw %struct.HashScanOpaqueData, ptr %135, i32 0, i32 7
  %137 = getelementptr inbounds nuw %struct.HashScanPosData, ptr %136, i32 0, i32 6
  store i32 0, ptr %137, align 4
  br label %138

138:                                              ; preds = %116
  br label %139

139:                                              ; preds = %138
  store i1 false, ptr %3, align 1
  store i32 1, ptr %12, align 4
  br label %154

140:                                              ; preds = %110
  %141 = load ptr, ptr %7, align 8
  %142 = getelementptr inbounds nuw %struct.HashScanOpaqueData, ptr %141, i32 0, i32 7
  %143 = getelementptr inbounds nuw %struct.HashScanPosData, ptr %142, i32 0, i32 7
  %144 = load ptr, ptr %7, align 8
  %145 = getelementptr inbounds nuw %struct.HashScanOpaqueData, ptr %144, i32 0, i32 7
  %146 = getelementptr inbounds nuw %struct.HashScanPosData, ptr %145, i32 0, i32 6
  %147 = load i32, ptr %146, align 4
  %148 = sext i32 %147 to i64
  %149 = getelementptr inbounds [408 x %struct.HashScanPosItem], ptr %143, i64 0, i64 %148
  store ptr %149, ptr %8, align 8
  %150 = load ptr, ptr %4, align 8
  %151 = getelementptr inbounds nuw %struct.IndexScanDescData, ptr %150, i32 0, i32 17
  %152 = load ptr, ptr %8, align 8
  %153 = getelementptr inbounds nuw %struct.HashScanPosItem, ptr %152, i32 0, i32 0
  call void @llvm.memcpy.p0.p0.i64(ptr align 8 %151, ptr align 2 %153, i64 6, i1 false)
  store i1 true, ptr %3, align 1
  store i32 1, ptr %12, align 4
  br label %154

154:                                              ; preds = %140, %139
  call void @llvm.lifetime.end.p0(i64 1, ptr %11) #7
  call void @llvm.lifetime.end.p0(i64 4, ptr %10) #7
  call void @llvm.lifetime.end.p0(i64 4, ptr %9) #7
  call void @llvm.lifetime.end.p0(i64 8, ptr %8) #7
  call void @llvm.lifetime.end.p0(i64 8, ptr %7) #7
  call void @llvm.lifetime.end.p0(i64 8, ptr %6) #7
  %155 = load i1, ptr %3, align 1
  ret i1 %155
}