; Function Attrs: nounwind uwtable
define dso_local noundef zeroext i1 @_hash_next(ptr noundef %0, i32 noundef %1) local_unnamed_addr #0 {
  %3 = getelementptr inbounds nuw i8, ptr %0, i64 8
  %4 = load ptr, ptr %3, align 8
  %5 = getelementptr inbounds nuw i8, ptr %0, i64 56
  %6 = load ptr, ptr %5, align 8
  %7 = icmp eq i32 %1, 1
  %8 = getelementptr inbounds nuw i8, ptr %6, i64 52
  %9 = load i32, ptr %8, align 4
  br i1 %7, label %10, label %26

10:                                               ; preds = %2
  %11 = add i32 %9, 1
  store i32 %11, ptr %8, align 4
  %12 = getelementptr inbounds nuw i8, ptr %6, i64 48
  %13 = load i32, ptr %12, align 4
  %14 = icmp sgt i32 %11, %13
  br i1 %14, label %15, label %.thread51

15:                                               ; preds = %10
  %16 = getelementptr inbounds nuw i8, ptr %6, i64 24
  %17 = load i32, ptr %16, align 8
  %18 = icmp sgt i32 %17, 0
  br i1 %18, label %19, label %20

19:                                               ; preds = %15
  tail call void @_hash_kill_items(ptr noundef nonnull %0) #6
  br label %20

20:                                               ; preds = %19, %15
  %21 = getelementptr inbounds nuw i8, ptr %6, i64 36
  %22 = load i32, ptr %21, align 4
  %.not54 = icmp eq i32 %22, -1
  br i1 %.not54, label %.thread, label %23

23:                                               ; preds = %20
  %24 = tail call i32 @_hash_getbuf(ptr noundef %4, i32 noundef %22, i32 noundef 1, i32 noundef 1) #6
  %25 = tail call fastcc zeroext i1 @_hash_readpage(ptr noundef nonnull %0, i32 %24, i32 noundef 1)
  br i1 %25, label %.thread51, label %.thread

26:                                               ; preds = %2
  %27 = add i32 %9, -1
  store i32 %27, ptr %8, align 4
  %28 = getelementptr inbounds nuw i8, ptr %6, i64 44
  %29 = load i32, ptr %28, align 4
  %30 = icmp slt i32 %27, %29
  br i1 %30, label %31, label %.thread51

31:                                               ; preds = %26
  %32 = getelementptr inbounds nuw i8, ptr %6, i64 24
  %33 = load i32, ptr %32, align 8
  %34 = icmp sgt i32 %33, 0
  br i1 %34, label %35, label %36

35:                                               ; preds = %31
  tail call void @_hash_kill_items(ptr noundef nonnull %0) #6
  br label %36

36:                                               ; preds = %35, %31
  %37 = getelementptr inbounds nuw i8, ptr %6, i64 40
  %38 = load i32, ptr %37, align 4
  %.not = icmp eq i32 %38, -1
  br i1 %.not, label %.thread, label %39

39:                                               ; preds = %36
  %40 = tail call i32 @_hash_getbuf(ptr noundef %4, i32 noundef %38, i32 noundef 1, i32 noundef 3) #6
  %41 = getelementptr inbounds nuw i8, ptr %6, i64 4
  %42 = load i32, ptr %41, align 4
  %43 = icmp eq i32 %40, %42
  br i1 %43, label %48, label %44

44:                                               ; preds = %39
  %45 = getelementptr inbounds nuw i8, ptr %6, i64 8
  %46 = load i32, ptr %45, align 8
  %47 = icmp eq i32 %40, %46
  br i1 %47, label %48, label %49

48:                                               ; preds = %44, %39
  tail call void @_hash_dropbuf(ptr noundef %4, i32 noundef %40) #6
  br label %49

49:                                               ; preds = %44, %48
  %50 = tail call fastcc zeroext i1 @_hash_readpage(ptr noundef nonnull %0, i32 %40, i32 noundef %1)
  br i1 %50, label %.thread51, label %.thread

.thread:                                          ; preds = %36, %20, %23, %49
  tail call void @_hash_dropscanbuf(ptr noundef %4, ptr noundef nonnull %6) #6
  %51 = getelementptr inbounds nuw i8, ptr %6, i64 28
  store i32 0, ptr %51, align 4
  %52 = getelementptr inbounds nuw i8, ptr %6, i64 32
  store i32 -1, ptr %52, align 4
  %53 = getelementptr inbounds nuw i8, ptr %6, i64 36
  store i32 -1, ptr %53, align 4
  %54 = getelementptr inbounds nuw i8, ptr %6, i64 40
  store i32 -1, ptr %54, align 4
  %55 = getelementptr inbounds nuw i8, ptr %6, i64 44
  store i32 0, ptr %55, align 4
  %56 = getelementptr inbounds nuw i8, ptr %6, i64 48
  store i32 0, ptr %56, align 4
  %57 = getelementptr inbounds nuw i8, ptr %6, i64 52
  store i32 0, ptr %57, align 4
  br label %64

.thread51:                                        ; preds = %26, %10, %23, %49
  %58 = getelementptr inbounds nuw i8, ptr %6, i64 56
  %59 = getelementptr inbounds nuw i8, ptr %6, i64 52
  %60 = load i32, ptr %59, align 4
  %61 = sext i32 %60 to i64
  %62 = getelementptr inbounds [408 x %struct.HashScanPosItem], ptr %58, i64 0, i64 %61
  %63 = getelementptr inbounds nuw i8, ptr %0, i64 96
  tail call void @llvm.memcpy.p0.p0.i64(ptr noundef nonnull align 8 dereferenceable(6) %63, ptr noundef nonnull align 2 dereferenceable(6) %62, i64 6, i1 false)
  br label %64

64:                                               ; preds = %.thread51, %.thread
  %.040 = phi i1 [ true, %.thread51 ], [ false, %.thread ]
  ret i1 %.040
}